target datalayout = "e-m:e-p270:32:32-p271:32:32-p272:64:64-i64:64-i128:128-f80:128-n8:16:32:64-S128"
target triple = "x86_64-pc-linux-gnu"

%struct.H5C_class_t = type { i32, ptr, i32, i32, ptr, ptr, ptr, ptr, ptr, ptr, ptr, ptr, ptr, ptr }
%struct.H5FA_dblock_t = type { %struct.H5C_cache_entry_t, ptr, ptr, ptr, ptr, i64, i64, i64, i64, i64, i64, i64 }
%struct.H5C_cache_entry_t = type { ptr, i64, i64, ptr, i8, ptr, i8, i8, i8, i8, i32, i8, i8, i8, i8, i8, i32, ptr, i32, i32, i32, i32, i32, i8, i8, ptr, ptr, ptr, ptr, ptr, ptr, i8, i32, i8, i64, ptr, i64, i64, i32, i8, i32, i32, i8, ptr, ptr, ptr }
%struct.H5FA_hdr_t = type { %struct.H5C_cache_entry_t, %struct.H5FA_create_t, i64, %struct.H5FA_stat_t, i64, i64, i64, ptr, i64, i8, i64, i64, ptr, i8, ptr, ptr }
%struct.H5FA_create_t = type { ptr, i8, i8, i64 }
%struct.H5FA_stat_t = type { i64, i64, i64 }

@H5FA_init_g = external global i8, align 1
@H5_libterm_g = external global i8, align 1
@.str.2 = private unnamed_addr constant [104 x i8] c"generated/home/dtcxzyw/WorkSpace/Projects/compilers/llvm-opt-benchmark/bench/hdf5/hdf5/src/H5FAdblock.c\00", align 1
@H5E_FARRAY_g = external global i64, align 8
@H5AC_FARRAY_DBLOCK = external constant [1 x %struct.H5C_class_t], align 16
@.str.13 = private unnamed_addr constant [41 x i8] c"unable to release fixed array data block\00", align 1
@H5E_CANTPROTECT_g = external global i64, align 8
@.str.14 = private unnamed_addr constant [57 x i8] c"unable to protect fixed array data block, address = %llu\00", align 1
@H5E_CANTUNPROTECT_g = external global i64, align 8
@.str.15 = private unnamed_addr constant [59 x i8] c"unable to unprotect fixed array data block, address = %llu\00", align 1
@__func__.H5FA__dblock_unprotect = private unnamed_addr constant [23 x i8] c"H5FA__dblock_unprotect\00", align 1
@__func__.H5FA__dblock_delete = private unnamed_addr constant [20 x i8] c"H5FA__dblock_delete\00", align 1
@H5AC_FARRAY_DBLK_PAGE = external constant [1 x %struct.H5C_class_t], align 16
@H5E_CANTEXPUNGE_g = external global i64, align 8
@.str.16 = private unnamed_addr constant [59 x i8] c"unable to remove array data block page from metadata cache\00", align 1

; Function Attrs: nounwind uwtable
define i32 @H5FA__dblock_unprotect(ptr noundef %0, i32 noundef %1) #0 {
  %3 = alloca ptr, align 8
  %4 = alloca i32, align 4
  %5 = alloca i32, align 4
  %6 = alloca i8, align 1
  store ptr %0, ptr %3, align 8, !tbaa !8
  store i32 %1, ptr %4, align 4, !tbaa !46
  call void @llvm.lifetime.start.p0(i64 4, ptr %5) #4
  store i32 0, ptr %5, align 4, !tbaa !46
  call void @llvm.lifetime.start.p0(i64 1, ptr %6) #4
  store i8 0, ptr %6, align 1, !tbaa !10
  %7 = load i8, ptr @H5FA_init_g, align 1, !tbaa !10, !range !12, !noundef !13
  %8 = trunc i8 %7 to i1
  br i1 %8, label %13, label %9

9:                                                ; preds = %2
  %10 = load i8, ptr @H5_libterm_g, align 1, !tbaa !10, !range !12, !noundef !13
  %11 = trunc i8 %10 to i1
  %12 = xor i1 %11, true
  br label %13

13:                                               ; preds = %9, %2
  %14 = phi i1 [ true, %2 ], [ %12, %9 ]
  %15 = xor i1 %14, true
  %16 = xor i1 %15, true
  %17 = zext i1 %16 to i32
  %18 = sext i32 %17 to i64
  %19 = call i64 @llvm.expect.i64(i64 %18, i64 1)
  %20 = icmp ne i64 %19, 0
  br i1 %20, label %21, label %58

21:                                               ; preds = %13
  %22 = load ptr, ptr %3, align 8, !tbaa !8
  %23 = getelementptr inbounds nuw %struct.H5FA_dblock_t, ptr %22, i32 0, i32 3
  %24 = load ptr, ptr %23, align 8, !tbaa !16
  %25 = getelementptr inbounds nuw %struct.H5FA_hdr_t, ptr %24, i32 0, i32 7
  %26 = load ptr, ptr %25, align 8, !tbaa !52
  %27 = load ptr, ptr %3, align 8, !tbaa !8
  %28 = getelementptr inbounds nuw %struct.H5FA_dblock_t, ptr %27, i32 0, i32 5
  %29 = load i64, ptr %28, align 8, !tbaa !53
  %30 = load ptr, ptr %3, align 8, !tbaa !8
  %31 = load i32, ptr %4, align 4, !tbaa !46
  %32 = call i32 @H5AC_unprotect(ptr noundef %26, ptr noundef @H5AC_FARRAY_DBLOCK, i64 noundef %29, ptr noundef %30, i32 noundef %31)
  %33 = icmp slt i32 %32, 0
  br i1 %33, label %34, label %56

34:                                               ; preds = %21
  br label %35

35:                                               ; preds = %34
  br label %36

36:                                               ; preds = %35
  br label %37

37:                                               ; preds = %36
  %38 = load i64, ptr @H5E_FARRAY_g, align 8, !tbaa !14
  %39 = load i64, ptr @H5E_CANTUNPROTECT_g, align 8, !tbaa !14
  %40 = load ptr, ptr %3, align 8, !tbaa !8
  %41 = getelementptr inbounds nuw %struct.H5FA_dblock_t, ptr %40, i32 0, i32 5
  %42 = load i64, ptr %41, align 8, !tbaa !53
  %43 = call i32 (ptr, ptr, i32, i64, i64, ptr, ...) @H5E_printf_stack(ptr noundef @.str.2, ptr noundef @__func__.H5FA__dblock_unprotect, i32 noundef 332, i64 noundef %38, i64 noundef %39, ptr noundef @.str.15, i64 noundef %42)
  br label %44

44:                                               ; preds = %37
  br label %45

45:                                               ; preds = %44
  store i8 1, ptr %6, align 1, !tbaa !10
  %46 = load i8, ptr %6, align 1, !tbaa !10, !range !12, !noundef !13
  %47 = trunc i8 %46 to i1
  %48 = zext i1 %47 to i8
  store i8 %48, ptr %6, align 1, !tbaa !10
  br label %49

49:                                               ; preds = %45
  br label %50

50:                                               ; preds = %49
  br label %51

51:                                               ; preds = %50
  store i32 -1, ptr %5, align 4, !tbaa !46
  br label %57

52:                                               ; No predecessors!
  br label %53

53:                                               ; preds = %52
  br label %54

54:                                               ; preds = %53
  br label %55

55:                                               ; preds = %54
  br label %56

56:                                               ; preds = %55, %21
  br label %57

57:                                               ; preds = %56, %51
  br label %58

58:                                               ; preds = %57, %13
  %59 = load i32, ptr %5, align 4, !tbaa !46
  call void @llvm.lifetime.end.p0(i64 1, ptr %6) #4
  call void @llvm.lifetime.end.p0(i64 4, ptr %5) #4
  ret i32 %59
}

; Function Attrs: nounwind uwtable
define i32 @H5FA__dblock_delete(ptr noundef %0, i64 noundef %1) #0 {
  %3 = alloca i32, align 4
  %4 = alloca ptr, align 8
  %5 = alloca i64, align 8
  %6 = alloca ptr, align 8
  %7 = alloca i32, align 4
  %8 = alloca i8, align 1
  %9 = alloca i64, align 8
  %10 = alloca i64, align 8
  %11 = alloca i32, align 4
  store ptr %0, ptr %4, align 8, !tbaa !3
  store i64 %1, ptr %5, align 8, !tbaa !14
  call void @llvm.lifetime.start.p0(i64 8, ptr %6) #4
  store ptr null, ptr %6, align 8, !tbaa !8
  call void @llvm.lifetime.start.p0(i64 4, ptr %7) #4
  store i32 0, ptr %7, align 4, !tbaa !46
  call void @llvm.lifetime.start.p0(i64 1, ptr %8) #4
  store i8 0, ptr %8, align 1, !tbaa !10
  %12 = load i8, ptr @H5FA_init_g, align 1, !tbaa !10, !range !12, !noundef !13
  %13 = trunc i8 %12 to i1
  br i1 %13, label %18, label %14

14:                                               ; preds = %2
  %15 = load i8, ptr @H5_libterm_g, align 1, !tbaa !10, !range !12, !noundef !13
  %16 = trunc i8 %15 to i1
  %17 = xor i1 %16, true
  br label %18

18:                                               ; preds = %14, %2
  %19 = phi i1 [ true, %2 ], [ %17, %14 ]
  %20 = xor i1 %19, true
  %21 = xor i1 %20, true
  %22 = zext i1 %21 to i32
  %23 = sext i32 %22 to i64
  %24 = call i64 @llvm.expect.i64(i64 %23, i64 1)
  %25 = icmp ne i64 %24, 0
  br i1 %25, label %26, label %139

26:                                               ; preds = %18
  %27 = load ptr, ptr %4, align 8, !tbaa !3
  %28 = load i64, ptr %5, align 8, !tbaa !14
  %29 = call ptr @H5FA__dblock_protect(ptr noundef %27, i64 noundef %28, i32 noundef 0)
  store ptr %29, ptr %6, align 8, !tbaa !8
  %30 = icmp eq ptr null, %29
  br i1 %30, label %31, label %51

31:                                               ; preds = %26
  br label %32

32:                                               ; preds = %31
  br label %33

33:                                               ; preds = %32
  br label %34

34:                                               ; preds = %33
  %35 = load i64, ptr @H5E_FARRAY_g, align 8, !tbaa !14
  %36 = load i64, ptr @H5E_CANTPROTECT_g, align 8, !tbaa !14
  %37 = load i64, ptr %5, align 8, !tbaa !14
  %38 = call i32 (ptr, ptr, i32, i64, i64, ptr, ...) @H5E_printf_stack(ptr noundef @.str.2, ptr noundef @__func__.H5FA__dblock_delete, i32 noundef 363, i64 noundef %35, i64 noundef %36, ptr noundef @.str.14, i64 noundef %37)
  br label %39

39:                                               ; preds = %34
  br label %40

40:                                               ; preds = %39
  store i8 1, ptr %8, align 1, !tbaa !10
  %41 = load i8, ptr %8, align 1, !tbaa !10, !range !12, !noundef !13
  %42 = trunc i8 %41 to i1
  %43 = zext i1 %42 to i8
  store i8 %43, ptr %8, align 1, !tbaa !10
  br label %44

44:                                               ; preds = %40
  br label %45

45:                                               ; preds = %44
  br label %46

46:                                               ; preds = %45
  store i32 -1, ptr %7, align 4, !tbaa !46
  br label %115

47:                                               ; No predecessors!
  br label %48

48:                                               ; preds = %47
  br label %49

49:                                               ; preds = %48
  br label %50

50:                                               ; preds = %49
  br label %51

51:                                               ; preds = %50, %26
  %52 = load ptr, ptr %6, align 8, !tbaa !8
  %53 = getelementptr inbounds nuw %struct.H5FA_dblock_t, ptr %52, i32 0, i32 7
  %54 = load i64, ptr %53, align 8, !tbaa !36
  %55 = icmp ne i64 %54, 0
  br i1 %55, label %56, label %114

56:                                               ; preds = %51
  call void @llvm.lifetime.start.p0(i64 8, ptr %9) #4
  call void @llvm.lifetime.start.p0(i64 8, ptr %10) #4
  %57 = load i64, ptr %5, align 8, !tbaa !14
  %58 = load ptr, ptr %6, align 8, !tbaa !8
  %59 = getelementptr inbounds nuw %struct.H5FA_dblock_t, ptr %58, i32 0, i32 3
  %60 = load ptr, ptr %59, align 8, !tbaa !16
  %61 = getelementptr inbounds nuw %struct.H5FA_hdr_t, ptr %60, i32 0, i32 10
  %62 = load i64, ptr %61, align 8, !tbaa !49
  %63 = add i64 10, %62
  %64 = load ptr, ptr %6, align 8, !tbaa !8
  %65 = getelementptr inbounds nuw %struct.H5FA_dblock_t, ptr %64, i32 0, i32 11
  %66 = load i64, ptr %65, align 8, !tbaa !37
  %67 = add i64 %63, %66
  %68 = add i64 %57, %67
  store i64 %68, ptr %9, align 8, !tbaa !14
  store i64 0, ptr %10, align 8, !tbaa !14
  br label %69

69:                                               ; preds = %107, %56
  %70 = load i64, ptr %10, align 8, !tbaa !14
  %71 = load ptr, ptr %6, align 8, !tbaa !8
  %72 = getelementptr inbounds nuw %struct.H5FA_dblock_t, ptr %71, i32 0, i32 7
  %73 = load i64, ptr %72, align 8, !tbaa !36
  %74 = icmp ult i64 %70, %73
  br i1 %74, label %75, label %110

75:                                               ; preds = %69
  %76 = load ptr, ptr %4, align 8, !tbaa !3
  %77 = getelementptr inbounds nuw %struct.H5FA_hdr_t, ptr %76, i32 0, i32 7
  %78 = load ptr, ptr %77, align 8, !tbaa !52
  %79 = load i64, ptr %9, align 8, !tbaa !14
  %80 = call i32 @H5AC_expunge_entry(ptr noundef %78, ptr noundef @H5AC_FARRAY_DBLK_PAGE, i64 noundef %79, i32 noundef 0)
  %81 = icmp slt i32 %80, 0
  br i1 %81, label %82, label %101

82:                                               ; preds = %75
  br label %83

83:                                               ; preds = %82
  br label %84

84:                                               ; preds = %83
  br label %85

85:                                               ; preds = %84
  %86 = load i64, ptr @H5E_FARRAY_g, align 8, !tbaa !14
  %87 = load i64, ptr @H5E_CANTEXPUNGE_g, align 8, !tbaa !14
  %88 = call i32 (ptr, ptr, i32, i64, i64, ptr, ...) @H5E_printf_stack(ptr noundef @.str.2, ptr noundef @__func__.H5FA__dblock_delete, i32 noundef 379, i64 noundef %86, i64 noundef %87, ptr noundef @.str.16)
  br label %89

89:                                               ; preds = %85
  br label %90

90:                                               ; preds = %89
  store i8 1, ptr %8, align 1, !tbaa !10
  %91 = load i8, ptr %8, align 1, !tbaa !10, !range !12, !noundef !13
  %92 = trunc i8 %91 to i1
  %93 = zext i1 %92 to i8
  store i8 %93, ptr %8, align 1, !tbaa !10
  br label %94

94:                                               ; preds = %90
  br label %95

95:                                               ; preds = %94
  br label %96

96:                                               ; preds = %95
  store i32 -1, ptr %7, align 4, !tbaa !46
  store i32 10, ptr %11, align 4
  br label %111

97:                                               ; No predecessors!
  br label %98

98:                                               ; preds = %97
  br label %99

99:                                               ; preds = %98
  br label %100

100:                                              ; preds = %99
  br label %101

101:                                              ; preds = %100, %75
  %102 = load ptr, ptr %6, align 8, !tbaa !8
  %103 = getelementptr inbounds nuw %struct.H5FA_dblock_t, ptr %102, i32 0, i32 10
  %104 = load i64, ptr %103, align 8, !tbaa !40
  %105 = load i64, ptr %9, align 8, !tbaa !14
  %106 = add i64 %105, %104
  store i64 %106, ptr %9, align 8, !tbaa !14
  br label %107

107:                                              ; preds = %101
  %108 = load i64, ptr %10, align 8, !tbaa !14
  %109 = add i64 %108, 1
  store i64 %109, ptr %10, align 8, !tbaa !14
  br label %69, !llvm.loop !60

110:                                              ; preds = %69
  store i32 0, ptr %11, align 4
  br label %111

111:                                              ; preds = %96, %110
  call void @llvm.lifetime.end.p0(i64 8, ptr %10) #4
  call void @llvm.lifetime.end.p0(i64 8, ptr %9) #4
  %112 = load i32, ptr %11, align 4
  switch i32 %112, label %141 [
    i32 0, label %113
    i32 10, label %115
  ]

113:                                              ; preds = %111
  br label %114

114:                                              ; preds = %113, %51
  br label %115

115:                                              ; preds = %114, %111, %46
  %116 = load ptr, ptr %6, align 8, !tbaa !8
  %117 = icmp ne ptr %116, null
  br i1 %117, label %118, label %138

118:                                              ; preds = %115
  %119 = load ptr, ptr %6, align 8, !tbaa !8
  %120 = call i32 @H5FA__dblock_unprotect(ptr noundef %119, i32 noundef 259)
  %121 = icmp slt i32 %120, 0
  br i1 %121, label %122, label %138

122:                                              ; preds = %118
  br label %123

123:                                              ; preds = %122
  br label %124

124:                                              ; preds = %123
  br label %125

125:                                              ; preds = %124
  %126 = load i64, ptr @H5E_FARRAY_g, align 8, !tbaa !14
  %127 = load i64, ptr @H5E_CANTUNPROTECT_g, align 8, !tbaa !14
  %128 = call i32 (ptr, ptr, i32, i64, i64, ptr, ...) @H5E_printf_stack(ptr noundef @.str.2, ptr noundef @__func__.H5FA__dblock_delete, i32 noundef 390, i64 noundef %126, i64 noundef %127, ptr noundef @.str.13)
  br label %129

129:                                              ; preds = %125
  br label %130

130:                                              ; preds = %129
  store i8 1, ptr %8, align 1, !tbaa !10
  %131 = load i8, ptr %8, align 1, !tbaa !10, !range !12, !noundef !13
  %132 = trunc i8 %131 to i1
  %133 = zext i1 %132 to i8
  store i8 %133, ptr %8, align 1, !tbaa !10
  br label %134

134:                                              ; preds = %130
  br label %135

135:                                              ; preds = %134
  store i32 -1, ptr %7, align 4, !tbaa !46
  br label %136

136:                                              ; preds = %135
  br label %137

137:                                              ; preds = %136
  br label %138

138:                                              ; preds = %137, %118, %115
  br label %139

139:                                              ; preds = %138, %18
  %140 = load i32, ptr %7, align 4, !tbaa !46
  store i32 %140, ptr %3, align 4
  store i32 1, ptr %11, align 4
  br label %141

141:                                              ; preds = %139, %111
  call void @llvm.lifetime.end.p0(i64 1, ptr %8) #4
  call void @llvm.lifetime.end.p0(i64 4, ptr %7) #4
  call void @llvm.lifetime.end.p0(i64 8, ptr %6) #4
  %142 = load i32, ptr %3, align 4
  ret i32 %142
}