; Function Attrs: nounwind uwtable
define range(i32 -1, 1) i32 @H5FA__dblock_delete(ptr noundef %0, i64 noundef %1) local_unnamed_addr #0 {
  %3 = load i8, ptr @H5FA_init_g, align 1, !tbaa !3, !range !7, !noundef !8
  %4 = trunc nuw i8 %3 to i1
  %5 = load i8, ptr @H5_libterm_g, align 1, !range !7
  %6 = trunc nuw i8 %5 to i1
  %7 = xor i1 %6, true
  %8 = select i1 %4, i1 true, i1 %7
  br i1 %8, label %9, label %H5FA__dblock_unprotect.exit.thread, !prof !9

9:                                                ; preds = %2
  %10 = tail call ptr @H5FA__dblock_protect(ptr noundef %0, i64 noundef %1, i32 noundef 0)
  %11 = icmp eq ptr %10, null
  br i1 %11, label %40, label %12

12:                                               ; preds = %9
  %13 = getelementptr inbounds nuw i8, ptr %10, i64 296
  %14 = load i64, ptr %13, align 8, !tbaa !34
  %.not = icmp eq i64 %14, 0
  br i1 %.not, label %.loopexit, label %.lr.ph

.lr.ph:                                           ; preds = %12
  %15 = add i64 %1, 10
  %16 = getelementptr inbounds nuw i8, ptr %10, i64 264
  %17 = load ptr, ptr %16, align 8, !tbaa !12
  %18 = getelementptr inbounds nuw i8, ptr %17, i64 352
  %19 = load i64, ptr %18, align 8, !tbaa !44
  %20 = add i64 %15, %19
  %21 = getelementptr inbounds nuw i8, ptr %10, i64 328
  %22 = load i64, ptr %21, align 8, !tbaa !35
  %23 = add i64 %20, %22
  %24 = getelementptr inbounds nuw i8, ptr %0, i64 328
  %25 = getelementptr inbounds nuw i8, ptr %10, i64 320
  br label %26

26:                                               ; preds = %.lr.ph, %34
  %.02132 = phi i64 [ 0, %.lr.ph ], [ %37, %34 ]
  %.02231 = phi i64 [ %23, %.lr.ph ], [ %36, %34 ]
  %27 = load ptr, ptr %24, align 8, !tbaa !47
  %28 = tail call i32 @H5AC_expunge_entry(ptr noundef %27, ptr noundef nonnull @H5AC_FARRAY_DBLK_PAGE, i64 noundef %.02231, i32 noundef 0) #3
  %29 = icmp slt i32 %28, 0
  br i1 %29, label %30, label %34

30:                                               ; preds = %26
  %31 = load i64, ptr @H5E_FARRAY_g, align 8, !tbaa !10
  %32 = load i64, ptr @H5E_CANTEXPUNGE_g, align 8, !tbaa !10
  %33 = tail call i32 (ptr, ptr, i32, i64, i64, ptr, ...) @H5E_printf_stack(ptr noundef nonnull @.str.2, ptr noundef nonnull @__func__.H5FA__dblock_delete, i32 noundef 379, i64 noundef %31, i64 noundef %32, ptr noundef nonnull @.str.16) #3
  br label %.loopexit

34:                                               ; preds = %26
  %35 = load i64, ptr %25, align 8, !tbaa !38
  %36 = add i64 %35, %.02231
  %37 = add nuw i64 %.02132, 1
  %38 = load i64, ptr %13, align 8, !tbaa !34
  %39 = icmp ult i64 %37, %38
  br i1 %39, label %26, label %.loopexit, !llvm.loop !55

40:                                               ; preds = %9
  %41 = load i64, ptr @H5E_FARRAY_g, align 8, !tbaa !10
  %42 = load i64, ptr @H5E_CANTPROTECT_g, align 8, !tbaa !10
  %43 = tail call i32 (ptr, ptr, i32, i64, i64, ptr, ...) @H5E_printf_stack(ptr noundef nonnull @.str.2, ptr noundef nonnull @__func__.H5FA__dblock_delete, i32 noundef 363, i64 noundef %41, i64 noundef %42, ptr noundef nonnull @.str.14, i64 noundef %1) #3
  br label %H5FA__dblock_unprotect.exit.thread

.loopexit:                                        ; preds = %34, %30, %12
  %.1.ph = phi i32 [ -1, %30 ], [ 0, %12 ], [ 0, %34 ]
  %44 = load i8, ptr @H5FA_init_g, align 1, !tbaa !3, !range !7, !noundef !8
  %45 = trunc nuw i8 %44 to i1
  %46 = load i8, ptr @H5_libterm_g, align 1, !range !7
  %47 = trunc nuw i8 %46 to i1
  %48 = xor i1 %47, true
  %49 = select i1 %45, i1 true, i1 %48
  br i1 %49, label %50, label %H5FA__dblock_unprotect.exit.thread, !prof !9

50:                                               ; preds = %.loopexit
  %51 = getelementptr inbounds nuw i8, ptr %10, i64 264
  %52 = load ptr, ptr %51, align 8, !tbaa !12
  %53 = getelementptr inbounds nuw i8, ptr %52, i64 328
  %54 = load ptr, ptr %53, align 8, !tbaa !47
  %55 = getelementptr inbounds nuw i8, ptr %10, i64 280
  %56 = load i64, ptr %55, align 8, !tbaa !48
  %57 = tail call i32 @H5AC_unprotect(ptr noundef %54, ptr noundef nonnull @H5AC_FARRAY_DBLOCK, i64 noundef %56, ptr noundef nonnull %10, i32 noundef 259) #3
  %58 = icmp slt i32 %57, 0
  br i1 %58, label %59, label %H5FA__dblock_unprotect.exit.thread

59:                                               ; preds = %50
  %60 = load i64, ptr @H5E_FARRAY_g, align 8, !tbaa !10
  %61 = load i64, ptr @H5E_CANTUNPROTECT_g, align 8, !tbaa !10
  %62 = load i64, ptr %55, align 8, !tbaa !48
  %63 = tail call i32 (ptr, ptr, i32, i64, i64, ptr, ...) @H5E_printf_stack(ptr noundef nonnull @.str.2, ptr noundef nonnull @__func__.H5FA__dblock_unprotect, i32 noundef 332, i64 noundef %60, i64 noundef %61, ptr noundef nonnull @.str.15, i64 noundef %62) #3
  %64 = load i64, ptr @H5E_FARRAY_g, align 8, !tbaa !10
  %65 = load i64, ptr @H5E_CANTUNPROTECT_g, align 8, !tbaa !10
  %66 = tail call i32 (ptr, ptr, i32, i64, i64, ptr, ...) @H5E_printf_stack(ptr noundef nonnull @.str.2, ptr noundef nonnull @__func__.H5FA__dblock_delete, i32 noundef 390, i64 noundef %64, i64 noundef %65, ptr noundef nonnull @.str.13) #3
  br label %H5FA__dblock_unprotect.exit.thread

H5FA__dblock_unprotect.exit.thread:               ; preds = %.loopexit, %50, %40, %2, %59
  %.024 = phi i32 [ -1, %59 ], [ -1, %40 ], [ 0, %2 ], [ %.1.ph, %50 ], [ %.1.ph, %.loopexit ]
  ret i32 %.024
}